target datalayout = "e-m:e-p270:32:32-p271:32:32-p272:64:64-i64:64-i128:128-f80:128-n8:16:32:64-S128"
target triple = "x86_64-pc-linux-gnu"

%struct.test_fixture = type { ptr, i32, ptr, ptr }

@rand_data = internal global [16 x i8] zeroinitializer, align 16
@.str.2 = private unnamed_addr constant [38 x i8] c"test_ASN1_OCTET_STRING_set_tgt_is_src\00", align 1
@.str.3 = private unnamed_addr constant [31 x i8] c"../openssl/test/cmp_asn_test.c\00", align 1
@.str.4 = private unnamed_addr constant [43 x i8] c"fixture = OPENSSL_zalloc(sizeof(*fixture))\00", align 1
@.str.12 = private unnamed_addr constant [46 x i8] c"fixture->src_string = ASN1_OCTET_STRING_new()\00", align 1
@.str.13 = private unnamed_addr constant [73 x i8] c"ASN1_OCTET_STRING_set(fixture->src_string, rand_data, sizeof(rand_data))\00", align 1
@.str.14 = private unnamed_addr constant [18 x i8] c"fixture->expected\00", align 1
@.str.15 = private unnamed_addr constant [75 x i8] c"ossl_cmp_asn1_octet_string_set1(&fixture->tgt_string, fixture->src_string)\00", align 1
@.str.16 = private unnamed_addr constant [2 x i8] c"0\00", align 1
@.str.17 = private unnamed_addr constant [64 x i8] c"ASN1_OCTET_STRING_cmp(fixture->tgt_string, fixture->src_string)\00", align 1

; Function Attrs: nounwind uwtable
define internal i32 @execute_CMP_ASN1_OCTET_STRING_set1_test(ptr noundef %0) #0 {
  %2 = alloca i32, align 4
  %3 = alloca ptr, align 8
  store ptr %0, ptr %3, align 8, !tbaa !4
  %4 = load ptr, ptr %3, align 8, !tbaa !4
  %5 = getelementptr inbounds nuw %struct.test_fixture, ptr %4, i32 0, i32 1
  %6 = load i32, ptr %5, align 8, !tbaa !11
  %7 = load ptr, ptr %3, align 8, !tbaa !4
  %8 = getelementptr inbounds nuw %struct.test_fixture, ptr %7, i32 0, i32 3
  %9 = load ptr, ptr %3, align 8, !tbaa !4
  %10 = getelementptr inbounds nuw %struct.test_fixture, ptr %9, i32 0, i32 2
  %11 = load ptr, ptr %10, align 8, !tbaa !16
  %12 = call i32 @ossl_cmp_asn1_octet_string_set1(ptr noundef %8, ptr noundef %11)
  %13 = call i32 @test_int_eq(ptr noundef @.str.3, i32 noundef 84, ptr noundef @.str.14, ptr noundef @.str.15, i32 noundef %6, i32 noundef %12)
  %14 = icmp ne i32 %13, 0
  br i1 %14, label %16, label %15

15:                                               ; preds = %1
  store i32 0, ptr %2, align 4
  br label %31

16:                                               ; preds = %1
  %17 = load ptr, ptr %3, align 8, !tbaa !4
  %18 = getelementptr inbounds nuw %struct.test_fixture, ptr %17, i32 0, i32 1
  %19 = load i32, ptr %18, align 8, !tbaa !11
  %20 = icmp ne i32 %19, 0
  br i1 %20, label %21, label %30

21:                                               ; preds = %16
  %22 = load ptr, ptr %3, align 8, !tbaa !4
  %23 = getelementptr inbounds nuw %struct.test_fixture, ptr %22, i32 0, i32 3
  %24 = load ptr, ptr %23, align 8, !tbaa !15
  %25 = load ptr, ptr %3, align 8, !tbaa !4
  %26 = getelementptr inbounds nuw %struct.test_fixture, ptr %25, i32 0, i32 2
  %27 = load ptr, ptr %26, align 8, !tbaa !16
  %28 = call i32 @ASN1_OCTET_STRING_cmp(ptr noundef %24, ptr noundef %27)
  %29 = call i32 @test_int_eq(ptr noundef @.str.3, i32 noundef 88, ptr noundef @.str.16, ptr noundef @.str.17, i32 noundef 0, i32 noundef %28)
  store i32 %29, ptr %2, align 4
  br label %31

30:                                               ; preds = %16
  store i32 1, ptr %2, align 4
  br label %31

31:                                               ; preds = %30, %21, %15
  %32 = load i32, ptr %2, align 4
  ret i32 %32
}

; Function Attrs: nounwind uwtable
define internal void @tear_down(ptr noundef %0) #0 {
  %2 = alloca ptr, align 8
  store ptr %0, ptr %2, align 8, !tbaa !4
  %3 = load ptr, ptr %2, align 8, !tbaa !4
  %4 = getelementptr inbounds nuw %struct.test_fixture, ptr %3, i32 0, i32 2
  %5 = load ptr, ptr %4, align 8, !tbaa !16
  call void @ASN1_OCTET_STRING_free(ptr noundef %5)
  %6 = load ptr, ptr %2, align 8, !tbaa !4
  %7 = getelementptr inbounds nuw %struct.test_fixture, ptr %6, i32 0, i32 3
  %8 = load ptr, ptr %7, align 8, !tbaa !15
  %9 = load ptr, ptr %2, align 8, !tbaa !4
  %10 = getelementptr inbounds nuw %struct.test_fixture, ptr %9, i32 0, i32 2
  %11 = load ptr, ptr %10, align 8, !tbaa !16
  %12 = icmp ne ptr %8, %11
  br i1 %12, label %13, label %17

13:                                               ; preds = %1
  %14 = load ptr, ptr %2, align 8, !tbaa !4
  %15 = getelementptr inbounds nuw %struct.test_fixture, ptr %14, i32 0, i32 3
  %16 = load ptr, ptr %15, align 8, !tbaa !15
  call void @ASN1_OCTET_STRING_free(ptr noundef %16)
  br label %17

17:                                               ; preds = %13, %1
  %18 = load ptr, ptr %2, align 8, !tbaa !4
  call void @CRYPTO_free(ptr noundef %18, ptr noundef @.str.3, i32 noundef 40)
  ret void
}

; Function Attrs: nounwind uwtable
define internal ptr @set_up(ptr noundef %0) #0 {
  %2 = alloca ptr, align 8
  %3 = alloca ptr, align 8
  %4 = alloca ptr, align 8
  %5 = alloca i32, align 4
  store ptr %0, ptr %3, align 8, !tbaa !17
  call void @llvm.lifetime.start.p0(i64 8, ptr %4) #3
  %6 = call noalias ptr @CRYPTO_zalloc(i64 noundef 32, ptr noundef @.str.3, i32 noundef 28)
  store ptr %6, ptr %4, align 8, !tbaa !4
  %7 = call i32 @test_ptr(ptr noundef @.str.3, i32 noundef 28, ptr noundef @.str.4, ptr noundef %6)
  %8 = icmp ne i32 %7, 0
  br i1 %8, label %10, label %9

9:                                                ; preds = %1
  store ptr null, ptr %2, align 8
  store i32 1, ptr %5, align 4
  br label %15

10:                                               ; preds = %1
  %11 = load ptr, ptr %3, align 8, !tbaa !17
  %12 = load ptr, ptr %4, align 8, !tbaa !4
  %13 = getelementptr inbounds nuw %struct.test_fixture, ptr %12, i32 0, i32 0
  store ptr %11, ptr %13, align 8, !tbaa !18
  %14 = load ptr, ptr %4, align 8, !tbaa !4
  store ptr %14, ptr %2, align 8
  store i32 1, ptr %5, align 4
  br label %15

15:                                               ; preds = %10, %9
  call void @llvm.lifetime.end.p0(i64 8, ptr %4) #3
  %16 = load ptr, ptr %2, align 8
  ret ptr %16
}

; Function Attrs: nounwind uwtable
define internal i32 @test_ASN1_OCTET_STRING_set_tgt_is_src() #0 {
  %1 = alloca i32, align 4
  %2 = alloca ptr, align 8
  %3 = alloca i32, align 4
  %4 = alloca i32, align 4
  call void @llvm.lifetime.start.p0(i64 8, ptr %2) #3
  %5 = call ptr @set_up(ptr noundef @.str.2)
  store ptr %5, ptr %2, align 8, !tbaa !4
  call void @llvm.lifetime.start.p0(i64 4, ptr %3) #3
  store i32 0, ptr %3, align 4, !tbaa !9
  %6 = load ptr, ptr %2, align 8, !tbaa !4
  %7 = icmp eq ptr %6, null
  br i1 %7, label %8, label %9

8:                                                ; preds = %0
  store i32 0, ptr %1, align 4
  store i32 1, ptr %4, align 4
  br label %44

9:                                                ; preds = %0
  %10 = load ptr, ptr %2, align 8, !tbaa !4
  %11 = getelementptr inbounds nuw %struct.test_fixture, ptr %10, i32 0, i32 1
  store i32 1, ptr %11, align 8, !tbaa !11
  %12 = call ptr @ASN1_OCTET_STRING_new()
  %13 = load ptr, ptr %2, align 8, !tbaa !4
  %14 = getelementptr inbounds nuw %struct.test_fixture, ptr %13, i32 0, i32 2
  store ptr %12, ptr %14, align 8, !tbaa !16
  %15 = call i32 @test_ptr(ptr noundef @.str.3, i32 noundef 111, ptr noundef @.str.12, ptr noundef %12)
  %16 = icmp ne i32 %15, 0
  br i1 %16, label %17, label %33

17:                                               ; preds = %9
  %18 = load ptr, ptr %2, align 8, !tbaa !4
  %19 = getelementptr inbounds nuw %struct.test_fixture, ptr %18, i32 0, i32 2
  %20 = load ptr, ptr %19, align 8, !tbaa !16
  %21 = load ptr, ptr %2, align 8, !tbaa !4
  %22 = getelementptr inbounds nuw %struct.test_fixture, ptr %21, i32 0, i32 3
  store ptr %20, ptr %22, align 8, !tbaa !15
  %23 = icmp ne ptr %20, null
  br i1 %23, label %24, label %33

24:                                               ; preds = %17
  %25 = load ptr, ptr %2, align 8, !tbaa !4
  %26 = getelementptr inbounds nuw %struct.test_fixture, ptr %25, i32 0, i32 2
  %27 = load ptr, ptr %26, align 8, !tbaa !16
  %28 = call i32 @ASN1_OCTET_STRING_set(ptr noundef %27, ptr noundef @rand_data, i32 noundef 16)
  %29 = icmp ne i32 %28, 0
  %30 = zext i1 %29 to i32
  %31 = call i32 @test_true(ptr noundef @.str.3, i32 noundef 114, ptr noundef @.str.13, i32 noundef %30)
  %32 = icmp ne i32 %31, 0
  br i1 %32, label %35, label %33

33:                                               ; preds = %24, %17, %9
  %34 = load ptr, ptr %2, align 8, !tbaa !4
  call void @tear_down(ptr noundef %34)
  store ptr null, ptr %2, align 8, !tbaa !4
  br label %35

35:                                               ; preds = %33, %24
  %36 = load ptr, ptr %2, align 8, !tbaa !4
  %37 = icmp ne ptr %36, null
  br i1 %37, label %38, label %42

38:                                               ; preds = %35
  %39 = load ptr, ptr %2, align 8, !tbaa !4
  %40 = call i32 @execute_CMP_ASN1_OCTET_STRING_set1_test(ptr noundef %39)
  store i32 %40, ptr %3, align 4, !tbaa !9
  %41 = load ptr, ptr %2, align 8, !tbaa !4
  call void @tear_down(ptr noundef %41)
  br label %42

42:                                               ; preds = %38, %35
  %43 = load i32, ptr %3, align 4, !tbaa !9
  store i32 %43, ptr %1, align 4
  store i32 1, ptr %4, align 4
  br label %44

44:                                               ; preds = %42, %8
  call void @llvm.lifetime.end.p0(i64 4, ptr %3) #3
  call void @llvm.lifetime.end.p0(i64 8, ptr %2) #3
  %45 = load i32, ptr %1, align 4
  ret i32 %45
}