; Function Attrs: nounwind uwtable
define internal i32 @test_ASN1_OCTET_STRING_set_tgt_is_src() #1 {
  %1 = tail call noalias ptr @CRYPTO_zalloc(i64 noundef 32, ptr noundef nonnull @.str.3, i32 noundef 28) #3
  %2 = tail call i32 @test_ptr(ptr noundef nonnull @.str.3, i32 noundef 28, ptr noundef nonnull @.str.4, ptr noundef %1) #3
  %.not.i = icmp eq i32 %2, 0
  br i1 %.not.i, label %set_up.exit.thread, label %set_up.exit

set_up.exit:                                      ; preds = %0
  store ptr @.str.2, ptr %1, align 8, !tbaa !4
  %3 = getelementptr inbounds nuw i8, ptr %1, i64 8
  store i32 1, ptr %3, align 8, !tbaa !12
  %4 = tail call ptr @ASN1_OCTET_STRING_new() #3
  %5 = getelementptr inbounds nuw i8, ptr %1, i64 16
  store ptr %4, ptr %5, align 8, !tbaa !13
  %6 = tail call i32 @test_ptr(ptr noundef nonnull @.str.3, i32 noundef 111, ptr noundef nonnull @.str.12, ptr noundef %4) #3
  %.not = icmp eq i32 %6, 0
  %.pre25 = load ptr, ptr %5, align 8, !tbaa !13
  br i1 %.not, label %14, label %7

7:                                                ; preds = %set_up.exit
  %8 = getelementptr inbounds nuw i8, ptr %1, i64 24
  store ptr %.pre25, ptr %8, align 8, !tbaa !14
  %.not14 = icmp eq ptr %.pre25, null
  br i1 %.not14, label %14, label %9

9:                                                ; preds = %7
  %10 = tail call i32 @ASN1_OCTET_STRING_set(ptr noundef nonnull %.pre25, ptr noundef nonnull @rand_data, i32 noundef 16) #3
  %11 = icmp ne i32 %10, 0
  %12 = zext i1 %11 to i32
  %13 = tail call i32 @test_true(ptr noundef nonnull @.str.3, i32 noundef 114, ptr noundef nonnull @.str.13, i32 noundef %12) #3
  %.not15 = icmp eq i32 %13, 0
  %.pre = load ptr, ptr %5, align 8, !tbaa !13
  br i1 %.not15, label %14, label %19

14:                                               ; preds = %9, %7, %set_up.exit
  %15 = phi ptr [ %.pre, %9 ], [ null, %7 ], [ %.pre25, %set_up.exit ]
  tail call void @ASN1_OCTET_STRING_free(ptr noundef %15) #3
  %16 = getelementptr inbounds nuw i8, ptr %1, i64 24
  %17 = load ptr, ptr %16, align 8, !tbaa !14
  %18 = load ptr, ptr %5, align 8, !tbaa !13
  %.not.i17 = icmp eq ptr %17, %18
  br i1 %.not.i17, label %set_up.exit.thread.sink.split, label %set_up.exit.thread.sink.split.sink.split

19:                                               ; preds = %9
  %20 = load i32, ptr %3, align 8, !tbaa !12
  %21 = tail call i32 @ossl_cmp_asn1_octet_string_set1(ptr noundef nonnull %8, ptr noundef %.pre) #3
  %22 = tail call i32 @test_int_eq(ptr noundef nonnull @.str.3, i32 noundef 84, ptr noundef nonnull @.str.14, ptr noundef nonnull @.str.15, i32 noundef %20, i32 noundef %21) #3
  %.not.i18 = icmp eq i32 %22, 0
  br i1 %.not.i18, label %execute_CMP_ASN1_OCTET_STRING_set1_test.exit, label %23

23:                                               ; preds = %19
  %24 = load i32, ptr %3, align 8, !tbaa !12
  %.not6.i = icmp eq i32 %24, 0
  br i1 %.not6.i, label %execute_CMP_ASN1_OCTET_STRING_set1_test.exit, label %25

25:                                               ; preds = %23
  %26 = load ptr, ptr %8, align 8, !tbaa !14
  %27 = load ptr, ptr %5, align 8, !tbaa !13
  %28 = tail call i32 @ASN1_OCTET_STRING_cmp(ptr noundef %26, ptr noundef %27) #3
  %29 = tail call i32 @test_int_eq(ptr noundef nonnull @.str.3, i32 noundef 88, ptr noundef nonnull @.str.16, ptr noundef nonnull @.str.17, i32 noundef 0, i32 noundef %28) #3
  br label %execute_CMP_ASN1_OCTET_STRING_set1_test.exit

execute_CMP_ASN1_OCTET_STRING_set1_test.exit:     ; preds = %19, %23, %25
  %.0.i19 = phi i32 [ %29, %25 ], [ 0, %19 ], [ 1, %23 ]
  %30 = load ptr, ptr %5, align 8, !tbaa !13
  tail call void @ASN1_OCTET_STRING_free(ptr noundef %30) #3
  %31 = load ptr, ptr %8, align 8, !tbaa !14
  %32 = load ptr, ptr %5, align 8, !tbaa !13
  %.not.i20 = icmp eq ptr %31, %32
  br i1 %.not.i20, label %set_up.exit.thread.sink.split, label %set_up.exit.thread.sink.split.sink.split

set_up.exit.thread.sink.split.sink.split:         ; preds = %execute_CMP_ASN1_OCTET_STRING_set1_test.exit, %14
  %.sink = phi ptr [ %17, %14 ], [ %31, %execute_CMP_ASN1_OCTET_STRING_set1_test.exit ]
  %.012.ph.ph = phi i32 [ 0, %14 ], [ %.0.i19, %execute_CMP_ASN1_OCTET_STRING_set1_test.exit ]
  tail call void @ASN1_OCTET_STRING_free(ptr noundef %.sink) #3
  br label %set_up.exit.thread.sink.split

set_up.exit.thread.sink.split:                    ; preds = %set_up.exit.thread.sink.split.sink.split, %execute_CMP_ASN1_OCTET_STRING_set1_test.exit, %14
  %.012.ph = phi i32 [ 0, %14 ], [ %.0.i19, %execute_CMP_ASN1_OCTET_STRING_set1_test.exit ], [ %.012.ph.ph, %set_up.exit.thread.sink.split.sink.split ]
  tail call void @CRYPTO_free(ptr noundef nonnull %1, ptr noundef nonnull @.str.3, i32 noundef 40) #3
  br label %set_up.exit.thread

set_up.exit.thread:                               ; preds = %set_up.exit.thread.sink.split, %0
  %.012 = phi i32 [ 0, %0 ], [ %.012.ph, %set_up.exit.thread.sink.split ]
  ret i32 %.012
}